; Function Attrs: mustprogress uwtable
define noundef zeroext i1 @_ZN8proxygen15HTTPTransaction12onWriteReadyEjd(ptr noundef nonnull align 8 dereferenceable(912) %this, i32 noundef %maxEgress, double noundef %ratio) local_unnamed_addr #3 align 2 personality ptr @__gxx_personality_v0 {
entry:
  %g = alloca %"class.folly::DelayedDestructionBase::DestructorGuard", align 8
  %add.ptr = getelementptr inbounds i8, ptr %this, i64 64
  store ptr %add.ptr, ptr %g, align 8
  %guardCount_.i = getelementptr inbounds i8, ptr %this, i64 72
  %0 = load i32, ptr %guardCount_.i, align 8
  %inc.i = add i32 %0, 1
  store i32 %inc.i, ptr %guardCount_.i, align 8
  %cumulativeRatio_ = getelementptr inbounds i8, ptr %this, i64 584
  %1 = load double, ptr %cumulativeRatio_, align 8
  %add = fadd double %1, %ratio
  store double %add, ptr %cumulativeRatio_, align 8
  %egressCalls_ = getelementptr inbounds i8, ptr %this, i64 592
  %2 = load i64, ptr %egressCalls_, align 8
  %inc = add i64 %2, 1
  store i64 %inc, ptr %egressCalls_, align 8
  %call15 = invoke noundef i64 @_ZN8proxygen15HTTPTransaction16sendDeferredBodyEj(ptr noundef nonnull align 8 dereferenceable(912) %this, i32 noundef %maxEgress)
          to label %invoke.cont14 unwind label %lpad

lpad:                                             ; preds = %cond.true.i, %entry
  %3 = landingpad { ptr, i32 }
          cleanup
  call void @_ZN5folly22DelayedDestructionBase15DestructorGuardD2Ev(ptr noundef nonnull align 8 dereferenceable(8) %g) #27
  resume { ptr, i32 } %3

invoke.cont14:                                    ; preds = %entry
  %queueHandle_.i = getelementptr inbounds i8, ptr %this, i64 408
  %4 = load ptr, ptr %queueHandle_.i, align 8
  %tobool.not.i = icmp eq ptr %4, null
  br i1 %tobool.not.i, label %if.then.i, label %cond.true.i

cond.true.i:                                      ; preds = %invoke.cont14
  %vtable.i = load ptr, ptr %4, align 8
  %vfn.i = getelementptr inbounds i8, ptr %vtable.i, i64 16
  %5 = load ptr, ptr %vfn.i, align 8
  %call.i1 = invoke noundef zeroext i1 %5(ptr noundef nonnull align 8 dereferenceable(8) %4)
          to label %if.then.i unwind label %lpad

if.then.i:                                        ; preds = %cond.true.i, %invoke.cont14
  %cond.i = phi i1 [ false, %invoke.cont14 ], [ %call.i1, %cond.true.i ]
  %guardCount_.i2 = getelementptr inbounds i8, ptr %this, i64 72
  %6 = load i32, ptr %guardCount_.i2, align 8
  %dec.i = add i32 %6, -1
  store i32 %dec.i, ptr %guardCount_.i2, align 8
  %cmp5.i = icmp eq i32 %dec.i, 0
  br i1 %cmp5.i, label %if.then6.i, label %_ZN5folly22DelayedDestructionBase15DestructorGuardD2Ev.exit

if.then6.i:                                       ; preds = %if.then.i
  %vtable.i3 = load ptr, ptr %add.ptr, align 8
  %vfn.i4 = getelementptr inbounds i8, ptr %vtable.i3, i64 16
  %7 = load ptr, ptr %vfn.i4, align 8
  invoke void %7(ptr noundef nonnull align 8 dereferenceable(12) %add.ptr, i1 noundef zeroext true)
          to label %_ZN5folly22DelayedDestructionBase15DestructorGuardD2Ev.exit unwind label %terminate.lpad.i

terminate.lpad.i:                                 ; preds = %if.then6.i
  %8 = landingpad { ptr, i32 }
          catch ptr null
  %9 = extractvalue { ptr, i32 } %8, 0
  tail call void @__clang_call_terminate(ptr %9) #29
  unreachable

_ZN5folly22DelayedDestructionBase15DestructorGuardD2Ev.exit: ; preds = %if.then.i, %if.then6.i
  ret i1 %cond.i
}